target datalayout = "e-m:e-p270:32:32-p271:32:32-p272:64:64-i64:64-i128:128-f80:128-n8:16:32:64-S128"
target triple = "x86_64-pc-linux-gnu"

%struct.slurm_acct_gather_filesystem_ops = type { ptr, ptr, ptr, ptr, ptr }

@plugin_inited = internal global i32 0, align 4
@ops = internal global %struct.slurm_acct_gather_filesystem_ops zeroinitializer, align 8

; Function Attrs: nounwind uwtable
define dso_local i32 @acct_gather_filesystem_g_conf_values(ptr noundef %0) #0 {
  %2 = alloca i32, align 4
  %3 = alloca ptr, align 8
  store ptr %0, ptr %3, align 8
  %4 = load i32, ptr @plugin_inited, align 4
  %5 = icmp eq i32 %4, 1
  br i1 %5, label %6, label %7

6:                                                ; preds = %1
  store i32 0, ptr %2, align 4
  br label %10

7:                                                ; preds = %1
  %8 = load ptr, ptr getelementptr inbounds nuw (%struct.slurm_acct_gather_filesystem_ops, ptr @ops, i32 0, i32 3), align 8
  %9 = load ptr, ptr %3, align 8
  call void %8(ptr noundef %9)
  store i32 0, ptr %2, align 4
  br label %10

10:                                               ; preds = %7, %6
  %11 = load i32, ptr %2, align 4
  ret i32 %11
}