; Function Attrs: nounwind uwtable
define dso_local noundef i32 @acct_gather_filesystem_g_conf_values(ptr noundef %0) local_unnamed_addr #0 {
  %2 = load i32, ptr @plugin_inited, align 4
  %3 = icmp eq i32 %2, 1
  br i1 %3, label %6, label %4

4:                                                ; preds = %1
  %5 = load ptr, ptr getelementptr inbounds nuw (i8, ptr @ops, i64 24), align 8
  tail call void %5(ptr noundef %0) #6
  br label %6

6:                                                ; preds = %1, %4
  ret i32 0
}